; Function Attrs: mustprogress nofree norecurse nosync nounwind willreturn memory(argmem: write) uwtable
define void @_ZN3g2o18ParameterContainerC2Eb(ptr noundef nonnull align 8 dereferenceable(57) initializes((16, 20), (24, 32)) %0, i1 noundef zeroext %1) unnamed_addr #3 align 2 personality ptr @__gxx_personality_v0 {
  %3 = zext i1 %1 to i8
  %4 = getelementptr inbounds nuw i8, ptr %0, i64 16
  store i32 0, ptr %4, align 8, !tbaa !3
  %5 = getelementptr inbounds nuw i8, ptr %0, i64 24
  store ptr null, ptr %5, align 8, !tbaa !12
  %6 = getelementptr inbounds nuw i8, ptr %0, i64 32
  store ptr %4, ptr %6, align 8, !tbaa !13
  %7 = getelementptr inbounds nuw i8, ptr %0, i64 40
  store ptr %4, ptr %7, align 8, !tbaa !14
  %8 = getelementptr inbounds nuw i8, ptr %0, i64 48
  store i64 0, ptr %8, align 8, !tbaa !15
  store ptr getelementptr inbounds nuw inrange(-16, 32) (i8, ptr @_ZTVN3g2o18ParameterContainerE, i64 16), ptr %0, align 8, !tbaa !16
  %9 = getelementptr inbounds nuw i8, ptr %0, i64 56
  store i8 %3, ptr %9, align 8, !tbaa !18
  ret void
}